target datalayout = "e-m:e-p270:32:32-p271:32:32-p272:64:64-i64:64-i128:128-f80:128-n8:16:32:64-S128"
target triple = "x86_64-unknown-linux-gnu"

%struct.app_flags = type { i24 }
%class.svector = type { %class.vector.0 }
%class.vector.0 = type { ptr }
%"class.(anonymous namespace)::compiler" = type { ptr, ptr, ptr, ptr, i8, %class.ptr_vector.3, %class.svector, %class.svector, %class.svector.5, ptr, ptr, ptr, i32, i8, %class.svector.7, %class.obj_map, %class.svector.9, %class.svector, %class.ptr_vector.11, %class.ptr_vector.11, %class.ptr_vector.11 }
%class.ptr_vector.3 = type { %class.vector.4 }
%class.vector.4 = type { ptr }
%class.svector.5 = type { %class.vector.6 }
%class.vector.6 = type { ptr }
%class.obj_map = type { %class.core_hashtable }
%class.core_hashtable = type <{ ptr, i32, i32, i32, [4 x i8] }>
%class.svector.9 = type { %class.vector.10 }
%class.vector.10 = type { ptr }
%class.ptr_vector.11 = type { %class.vector.12 }
%class.vector.12 = type { ptr }
%class.svector.7 = type { %class.vector.8 }
%class.vector.8 = type { ptr }
%class.app = type { %class.expr, ptr, i32, [0 x ptr] }
%class.expr = type { %class.ast }
%class.ast = type { i32, i24, i32, i32 }
%class.var = type { %class.expr, i32, ptr }

@_ZN3app16g_constant_flagsE = external global %struct.app_flags, align 4

; Function Attrs: mustprogress nounwind uwtable
define linkonce_odr hidden noundef i32 @_ZNK3ast8get_kindEv(ptr noundef nonnull align 4 dereferenceable(16) %this) #4 comdat align 2 {
entry:
  %this.addr = alloca ptr, align 8
  store ptr %this, ptr %this.addr, align 8
  %this1 = load ptr, ptr %this.addr, align 8
  %m_kind = getelementptr inbounds %class.ast, ptr %this1, i32 0, i32 1
  %bf.load = load i32, ptr %m_kind, align 4
  %bf.clear = and i32 %bf.load, 65535
  ret i32 %bf.clear
}

; Function Attrs: mustprogress nounwind uwtable
define linkonce_odr hidden noundef ptr @_ZNK3app5flagsEv(ptr noundef nonnull align 8 dereferenceable(32) %this) #4 comdat align 2 {
entry:
  %this.addr = alloca ptr, align 8
  store ptr %this, ptr %this.addr, align 8
  %this1 = load ptr, ptr %this.addr, align 8
  %m_num_args = getelementptr inbounds %class.app, ptr %this1, i32 0, i32 2
  %0 = load i32, ptr %m_num_args, align 8
  %cmp = icmp eq i32 %0, 0
  br i1 %cmp, label %cond.true, label %cond.false

cond.true:                                        ; preds = %entry
  br label %cond.end

cond.false:                                       ; preds = %entry
  %m_args = getelementptr inbounds %class.app, ptr %this1, i32 0, i32 3
  %arraydecay = getelementptr inbounds [0 x ptr], ptr %m_args, i64 0, i64 0
  %m_num_args2 = getelementptr inbounds %class.app, ptr %this1, i32 0, i32 2
  %1 = load i32, ptr %m_num_args2, align 8
  %idx.ext = zext i32 %1 to i64
  %add.ptr = getelementptr inbounds ptr, ptr %arraydecay, i64 %idx.ext
  br label %cond.end

cond.end:                                         ; preds = %cond.false, %cond.true
  %cond = phi ptr [ @_ZN3app16g_constant_flagsE, %cond.true ], [ %add.ptr, %cond.false ]
  ret ptr %cond
}

; Function Attrs: mustprogress nounwind uwtable
define linkonce_odr hidden noundef ptr @_Z6to_appP3ast(ptr noundef %n) #4 comdat {
entry:
  %n.addr = alloca ptr, align 8
  store ptr %n, ptr %n.addr, align 8
  %0 = load ptr, ptr %n.addr, align 8
  ret ptr %0
}

; Function Attrs: mustprogress uwtable
define linkonce_odr hidden noundef zeroext i1 @_Z6is_appPK3ast(ptr noundef %n) #5 comdat {
entry:
  %n.addr = alloca ptr, align 8
  store ptr %n, ptr %n.addr, align 8
  %0 = load ptr, ptr %n.addr, align 8
  %call = call noundef i32 @_ZNK3ast8get_kindEv(ptr noundef nonnull align 4 dereferenceable(16) %0)
  %cmp = icmp eq i32 %call, 0
  ret i1 %cmp
}

; Function Attrs: mustprogress nounwind uwtable
define linkonce_odr hidden noundef nonnull align 4 dereferenceable(4) ptr @_ZN6vectorIiLb0EjEixEj(ptr noundef nonnull align 8 dereferenceable(8) %this, i32 noundef %idx) #4 comdat align 2 {
entry:
  %this.addr = alloca ptr, align 8
  %idx.addr = alloca i32, align 4
  store ptr %this, ptr %this.addr, align 8
  store i32 %idx, ptr %idx.addr, align 4
  %this1 = load ptr, ptr %this.addr, align 8
  %m_data = getelementptr inbounds %class.vector.6, ptr %this1, i32 0, i32 0
  %0 = load ptr, ptr %m_data, align 8
  %1 = load i32, ptr %idx.addr, align 4
  %idxprom = zext i32 %1 to i64
  %arrayidx = getelementptr inbounds i32, ptr %0, i64 %idxprom
  ret ptr %arrayidx
}

; Function Attrs: mustprogress nounwind uwtable
define linkonce_odr hidden noundef i32 @_ZNK3var7get_idxEv(ptr noundef nonnull align 8 dereferenceable(32) %this) #4 comdat align 2 {
entry:
  %this.addr = alloca ptr, align 8
  store ptr %this, ptr %this.addr, align 8
  %this1 = load ptr, ptr %this.addr, align 8
  %m_idx = getelementptr inbounds %class.var, ptr %this1, i32 0, i32 1
  %0 = load i32, ptr %m_idx, align 8
  ret i32 %0
}

; Function Attrs: mustprogress nounwind uwtable
define linkonce_odr hidden noundef ptr @_Z6to_varP3ast(ptr noundef %n) #4 comdat {
entry:
  %n.addr = alloca ptr, align 8
  store ptr %n, ptr %n.addr, align 8
  %0 = load ptr, ptr %n.addr, align 8
  ret ptr %0
}

; Function Attrs: mustprogress nounwind uwtable
define linkonce_odr hidden noundef zeroext i1 @_Z6is_varPK3ast(ptr noundef %n) #4 comdat {
entry:
  %n.addr = alloca ptr, align 8
  store ptr %n, ptr %n.addr, align 8
  %0 = load ptr, ptr %n.addr, align 8
  %call = call noundef i32 @_ZNK3ast8get_kindEv(ptr noundef nonnull align 4 dereferenceable(16) %0)
  %cmp = icmp eq i32 %call, 1
  ret i1 %cmp
}

; Function Attrs: mustprogress nounwind uwtable
define linkonce_odr hidden noundef ptr @_ZNK3app7get_argEj(ptr noundef nonnull align 8 dereferenceable(32) %this, i32 noundef %idx) #4 comdat align 2 {
entry:
  %this.addr = alloca ptr, align 8
  %idx.addr = alloca i32, align 4
  store ptr %this, ptr %this.addr, align 8
  store i32 %idx, ptr %idx.addr, align 4
  %this1 = load ptr, ptr %this.addr, align 8
  %m_args = getelementptr inbounds %class.app, ptr %this1, i32 0, i32 3
  %0 = load i32, ptr %idx.addr, align 4
  %idxprom = zext i32 %0 to i64
  %arrayidx = getelementptr inbounds [0 x ptr], ptr %m_args, i64 0, i64 %idxprom
  %1 = load ptr, ptr %arrayidx, align 8
  ret ptr %1
}

; Function Attrs: mustprogress nounwind uwtable
define linkonce_odr hidden noundef i32 @_ZNK3app12get_num_argsEv(ptr noundef nonnull align 8 dereferenceable(32) %this) #4 comdat align 2 {
entry:
  %this.addr = alloca ptr, align 8
  store ptr %this, ptr %this.addr, align 8
  %this1 = load ptr, ptr %this.addr, align 8
  %m_num_args = getelementptr inbounds %class.app, ptr %this1, i32 0, i32 2
  %0 = load i32, ptr %m_num_args, align 8
  ret i32 %0
}

; Function Attrs: mustprogress uwtable
define linkonce_odr hidden noundef zeroext i1 @_ZNK3app9is_groundEv(ptr noundef nonnull align 8 dereferenceable(32) %this) #5 comdat align 2 {
entry:
  %this.addr = alloca ptr, align 8
  store ptr %this, ptr %this.addr, align 8
  %this1 = load ptr, ptr %this.addr, align 8
  %call = call noundef ptr @_ZNK3app5flagsEv(ptr noundef nonnull align 8 dereferenceable(32) %this1)
  %bf.load = load i32, ptr %call, align 4
  %bf.lshr = lshr i32 %bf.load, 16
  %bf.clear = and i32 %bf.lshr, 1
  %tobool = icmp ne i32 %bf.clear, 0
  ret i1 %tobool
}

; Function Attrs: mustprogress uwtable
define internal noundef i32 @_ZN12_GLOBAL__N_18compiler23get_num_bound_vars_coreEP3appRb(ptr noundef nonnull align 8 dereferenceable(176) %this, ptr noundef %n, ptr noundef nonnull align 1 dereferenceable(1) %has_unbound_vars) #5 align 2 {
entry:
  %retval = alloca i32, align 4
  %this.addr = alloca ptr, align 8
  %n.addr = alloca ptr, align 8
  %has_unbound_vars.addr = alloca ptr, align 8
  %r = alloca i32, align 4
  %num_args = alloca i32, align 4
  %i = alloca i32, align 4
  %arg = alloca ptr, align 8
  %var_id = alloca i32, align 4
  store ptr %this, ptr %this.addr, align 8
  store ptr %n, ptr %n.addr, align 8
  store ptr %has_unbound_vars, ptr %has_unbound_vars.addr, align 8
  %this1 = load ptr, ptr %this.addr, align 8
  store i32 0, ptr %r, align 4
  %0 = load ptr, ptr %n.addr, align 8
  %call = call noundef zeroext i1 @_ZNK3app9is_groundEv(ptr noundef nonnull align 8 dereferenceable(32) %0)
  br i1 %call, label %if.then, label %if.end

if.then:                                          ; preds = %entry
  store i32 0, ptr %retval, align 4
  br label %return

if.end:                                           ; preds = %entry
  %1 = load ptr, ptr %n.addr, align 8
  %call2 = call noundef i32 @_ZNK3app12get_num_argsEv(ptr noundef nonnull align 8 dereferenceable(32) %1)
  store i32 %call2, ptr %num_args, align 4
  store i32 0, ptr %i, align 4
  br label %for.cond

for.cond:                                         ; preds = %for.inc, %if.end
  %2 = load i32, ptr %i, align 4
  %3 = load i32, ptr %num_args, align 4
  %cmp = icmp ult i32 %2, %3
  br i1 %cmp, label %for.body, label %for.end

for.body:                                         ; preds = %for.cond
  %4 = load ptr, ptr %n.addr, align 8
  %5 = load i32, ptr %i, align 4
  %call3 = call noundef ptr @_ZNK3app7get_argEj(ptr noundef nonnull align 8 dereferenceable(32) %4, i32 noundef %5)
  store ptr %call3, ptr %arg, align 8
  %6 = load ptr, ptr %arg, align 8
  %call4 = call noundef zeroext i1 @_Z6is_varPK3ast(ptr noundef %6)
  br i1 %call4, label %if.then5, label %if.else12

if.then5:                                         ; preds = %for.body
  %7 = load ptr, ptr %arg, align 8
  %call6 = call noundef ptr @_Z6to_varP3ast(ptr noundef %7)
  %call7 = call noundef i32 @_ZNK3var7get_idxEv(ptr noundef nonnull align 8 dereferenceable(32) %call6)
  store i32 %call7, ptr %var_id, align 4
  %m_vars = getelementptr inbounds %"class.(anonymous namespace)::compiler", ptr %this1, i32 0, i32 8
  %8 = load i32, ptr %var_id, align 4
  %call8 = call noundef nonnull align 4 dereferenceable(4) ptr @_ZN6vectorIiLb0EjEixEj(ptr noundef nonnull align 8 dereferenceable(8) %m_vars, i32 noundef %8)
  %9 = load i32, ptr %call8, align 4
  %cmp9 = icmp ne i32 %9, -1
  br i1 %cmp9, label %if.then10, label %if.else

if.then10:                                        ; preds = %if.then5
  %10 = load i32, ptr %r, align 4
  %inc = add i32 %10, 1
  store i32 %inc, ptr %r, align 4
  br label %if.end11

if.else:                                          ; preds = %if.then5
  %11 = load ptr, ptr %has_unbound_vars.addr, align 8
  store i8 1, ptr %11, align 1
  br label %if.end11

if.end11:                                         ; preds = %if.else, %if.then10
  br label %if.end18

if.else12:                                        ; preds = %for.body
  %12 = load ptr, ptr %arg, align 8
  %call13 = call noundef zeroext i1 @_Z6is_appPK3ast(ptr noundef %12)
  br i1 %call13, label %if.then14, label %if.end17

if.then14:                                        ; preds = %if.else12
  %13 = load ptr, ptr %arg, align 8
  %call15 = call noundef ptr @_Z6to_appP3ast(ptr noundef %13)
  %14 = load ptr, ptr %has_unbound_vars.addr, align 8
  %call16 = call noundef i32 @_ZN12_GLOBAL__N_18compiler23get_num_bound_vars_coreEP3appRb(ptr noundef nonnull align 8 dereferenceable(176) %this1, ptr noundef %call15, ptr noundef nonnull align 1 dereferenceable(1) %14)
  %15 = load i32, ptr %r, align 4
  %add = add i32 %15, %call16
  store i32 %add, ptr %r, align 4
  br label %if.end17

if.end17:                                         ; preds = %if.then14, %if.else12
  br label %if.end18

if.end18:                                         ; preds = %if.end17, %if.end11
  br label %for.inc

for.inc:                                          ; preds = %if.end18
  %16 = load i32, ptr %i, align 4
  %inc19 = add i32 %16, 1
  store i32 %inc19, ptr %i, align 4
  br label %for.cond, !llvm.loop !78

for.end:                                          ; preds = %for.cond
  %17 = load i32, ptr %r, align 4
  store i32 %17, ptr %retval, align 4
  br label %return

return:                                           ; preds = %for.end, %if.then
  %18 = load i32, ptr %retval, align 4
  ret i32 %18
}