; Function Attrs: mustprogress nofree nosync nounwind memory(readwrite, inaccessiblemem: none) uwtable
define internal fastcc noundef i32 @_ZN12_GLOBAL__N_18compiler23get_num_bound_vars_coreEP3appRb(ptr nocapture noundef nonnull readonly align 8 dereferenceable(176) %this, ptr nocapture noundef readonly %n, ptr nocapture noundef nonnull writeonly align 1 dereferenceable(1) %has_unbound_vars) unnamed_addr #15 align 2 {
entry:
  %m_num_args.i.i = getelementptr inbounds i8, ptr %n, i64 24
  %0 = load i32, ptr %m_num_args.i.i, align 8
  %cmp.i.i = icmp eq i32 %0, 0
  %m_args.i.i = getelementptr inbounds i8, ptr %n, i64 32
  %idx.ext.i.i = zext i32 %0 to i64
  %add.ptr.i.i = getelementptr inbounds ptr, ptr %m_args.i.i, i64 %idx.ext.i.i
  %cond.i.i = select i1 %cmp.i.i, ptr @_ZN3app16g_constant_flagsE, ptr %add.ptr.i.i
  %bf.load.i = load i32, ptr %cond.i.i, align 4
  %1 = and i32 %bf.load.i, 65536
  %tobool.i.not = icmp eq i32 %1, 0
  %cmp17 = icmp ne i32 %0, 0
  %or.cond = and i1 %tobool.i.not, %cmp17
  br i1 %or.cond, label %for.body.lr.ph, label %return

for.body.lr.ph:                                   ; preds = %entry
  %m_vars = getelementptr inbounds i8, ptr %this, i64 64
  br label %for.body

for.body:                                         ; preds = %for.body.lr.ph, %for.inc
  %indvars.iv = phi i64 [ 0, %for.body.lr.ph ], [ %indvars.iv.next, %for.inc ]
  %r.019 = phi i32 [ 0, %for.body.lr.ph ], [ %r.1, %for.inc ]
  %arrayidx.i = getelementptr inbounds [0 x ptr], ptr %m_args.i.i, i64 0, i64 %indvars.iv
  %2 = load ptr, ptr %arrayidx.i, align 8
  %m_kind.i.i = getelementptr inbounds i8, ptr %2, i64 4
  %bf.load.i.i = load i32, ptr %m_kind.i.i, align 4
  %trunc = trunc i32 %bf.load.i.i to i16
  switch i16 %trunc, label %for.inc [
    i16 1, label %if.then5
    i16 0, label %if.then14
  ]

if.then5:                                         ; preds = %for.body
  %m_idx.i = getelementptr inbounds i8, ptr %2, i64 16
  %3 = load i32, ptr %m_idx.i, align 8
  %4 = load ptr, ptr %m_vars, align 8
  %idxprom.i11 = zext i32 %3 to i64
  %arrayidx.i12 = getelementptr inbounds i32, ptr %4, i64 %idxprom.i11
  %5 = load i32, ptr %arrayidx.i12, align 4
  %cmp9.not = icmp eq i32 %5, -1
  br i1 %cmp9.not, label %if.else, label %if.then10

if.then10:                                        ; preds = %if.then5
  %inc = add i32 %r.019, 1
  br label %for.inc

if.else:                                          ; preds = %if.then5
  store i8 1, ptr %has_unbound_vars, align 1
  br label %for.inc

if.then14:                                        ; preds = %for.body
  %call16 = tail call fastcc noundef i32 @_ZN12_GLOBAL__N_18compiler23get_num_bound_vars_coreEP3appRb(ptr noundef nonnull align 8 dereferenceable(176) %this, ptr noundef nonnull %2, ptr noundef nonnull align 1 dereferenceable(1) %has_unbound_vars)
  %add = add i32 %call16, %r.019
  br label %for.inc

for.inc:                                          ; preds = %for.body, %if.else, %if.then10, %if.then14
  %r.1 = phi i32 [ %inc, %if.then10 ], [ %r.019, %if.else ], [ %add, %if.then14 ], [ %r.019, %for.body ]
  %indvars.iv.next = add nuw nsw i64 %indvars.iv, 1
  %exitcond.not = icmp eq i64 %indvars.iv.next, %idx.ext.i.i
  br i1 %exitcond.not, label %return, label %for.body, !llvm.loop !76

return:                                           ; preds = %for.inc, %entry
  %retval.0 = phi i32 [ 0, %entry ], [ %r.1, %for.inc ]
  ret i32 %retval.0
}